; Function Attrs: mustprogress uwtable
define hidden noundef ptr @_ZN7datalog21check_relation_plugin10mk_join_fnERKNS_13relation_baseES3_jPKjS5_(ptr noundef nonnull readonly align 8 captures(none) dereferenceable(56) %0, ptr noundef nonnull align 8 dereferenceable(28) %1, ptr noundef nonnull align 8 dereferenceable(28) %2, i32 noundef %3, ptr noundef %4, ptr noundef %5) unnamed_addr #3 align 2 personality ptr @__gxx_personality_v0 {
  %7 = getelementptr inbounds nuw i8, ptr %0, i64 48
  %8 = load ptr, ptr %7, align 8, !tbaa !384
  %9 = tail call ptr @__dynamic_cast(ptr nonnull readonly align 8 dereferenceable(28) %1, ptr nonnull @_ZTIN7datalog13relation_baseE, ptr nonnull @_ZTIN7datalog14check_relationE, i64 0) #24
  %10 = icmp eq ptr %9, null
  br i1 %10, label %11, label %_ZN7datalog21check_relation_plugin3getERKNS_13relation_baseE.exit

11:                                               ; preds = %6
  tail call void @__cxa_bad_cast() #27
  unreachable

_ZN7datalog21check_relation_plugin3getERKNS_13relation_baseE.exit: ; preds = %6
  %12 = tail call ptr @__dynamic_cast(ptr nonnull readonly align 8 dereferenceable(28) %2, ptr nonnull @_ZTIN7datalog13relation_baseE, ptr nonnull @_ZTIN7datalog14check_relationE, i64 0) #24
  %13 = icmp eq ptr %12, null
  br i1 %13, label %14, label %_ZN7datalog21check_relation_plugin3getERKNS_13relation_baseE.exit12

14:                                               ; preds = %_ZN7datalog21check_relation_plugin3getERKNS_13relation_baseE.exit
  tail call void @__cxa_bad_cast() #27
  unreachable

_ZN7datalog21check_relation_plugin3getERKNS_13relation_baseE.exit12: ; preds = %_ZN7datalog21check_relation_plugin3getERKNS_13relation_baseE.exit
  %15 = getelementptr inbounds nuw i8, ptr %9, i64 40
  %16 = load ptr, ptr %15, align 8, !tbaa !29
  %17 = getelementptr inbounds nuw i8, ptr %12, i64 40
  %18 = load ptr, ptr %17, align 8, !tbaa !29
  %19 = load ptr, ptr %8, align 8, !tbaa !3
  %20 = getelementptr inbounds nuw i8, ptr %19, i64 80
  %21 = load ptr, ptr %20, align 8
  %22 = tail call noundef ptr %21(ptr noundef nonnull align 8 dereferenceable(32) %8, ptr noundef nonnull align 8 dereferenceable(28) %16, ptr noundef nonnull align 8 dereferenceable(28) %18, i32 noundef %3, ptr noundef %4, ptr noundef %5)
  %.not = icmp eq ptr %22, null
  br i1 %.not, label %28, label %23

23:                                               ; preds = %_ZN7datalog21check_relation_plugin3getERKNS_13relation_baseE.exit12
  %24 = tail call noalias noundef ptr @_ZN6memory8allocateEm(i64 noundef 40)
  %25 = getelementptr inbounds nuw i8, ptr %1, i64 16
  %26 = getelementptr inbounds nuw i8, ptr %2, i64 16
  tail call void @_ZN7datalog17tr_infrastructureINS_15relation_traitsEE18convenient_join_fnC2ERKNS_18relation_signatureES6_jPKjS8_(ptr noundef nonnull align 8 dereferenceable(40) %24, ptr noundef nonnull align 8 dereferenceable(8) %25, ptr noundef nonnull align 8 dereferenceable(8) %26, i32 noundef %3, ptr noundef %4, ptr noundef %5)
  store ptr getelementptr inbounds nuw inrange(-16, 24) (i8, ptr @_ZTVN7datalog21check_relation_plugin7join_fnE, i64 16), ptr %24, align 8, !tbaa !3
  %27 = getelementptr inbounds nuw i8, ptr %24, i64 32
  store ptr %22, ptr %27, align 8, !tbaa !392
  br label %28

28:                                               ; preds = %_ZN7datalog21check_relation_plugin3getERKNS_13relation_baseE.exit12, %23
  %29 = phi ptr [ %24, %23 ], [ null, %_ZN7datalog21check_relation_plugin3getERKNS_13relation_baseE.exit12 ]
  ret ptr %29
}